Connecting to '88.150.154.46:443'...
- Certificate type: X.509
- Got a certificate list of 3 certificates.
- Certificate[0] info:
 - X.509 Certificate Information:
	Version: 3
	Serial Number (hex): 46c654ff0c5b653d5781ff8f2a733412
	Issuer: C=GB,ST=Greater Manchester,L=Salford,O=COMODO CA Limited,CN=COMODO RSA Domain Validation Secure Server CA
	Validity:
		Not Before: Thu Mar 10 00:00:00 UTC 2016
		Not After: Mon Apr 09 23:59:59 UTC 2018
	Subject: OU=Domain Control Validated,OU=PositiveSSL Wildcard,CN=*.cactussstp.com
	Subject Public Key Algorithm: RSA
	Algorithm Security Level: Medium (2048 bits)
		Modulus (bits 2048):
			00:da:19:0a:82:48:4b:26:74:e7:1e:f1:71:46:b0:10
			72:52:4f:05:7e:43:61:ab:88:f2:b5:51:ae:5f:74:24
			f2:e1:44:15:7a:af:87:2b:5f:23:97:5b:5f:ff:4a:a7
			e3:1b:de:94:55:93:98:1a:8e:ec:80:61:57:e3:db:de
			88:c4:32:05:33:a9:9f:42:cd:88:87:2d:e1:57:6a:5e
			aa:cb:4d:cd:67:9c:ae:9f:95:bd:fc:ab:3f:cb:e6:7d
			6b:24:4c:f4:1f:7b:f3:e4:6d:20:14:ca:93:cc:f9:39
			f3:35:14:e3:93:3a:9e:4d:ea:ba:81:2e:5f:78:92:55
			4f:84:38:60:92:59:61:87:22:51:ee:a3:d6:38:e0:7a
			92:3a:21:ff:95:4a:2b:41:7d:7c:5d:10:7a:9e:57:22
			ca:79:c6:8d:87:7b:6e:bd:ce:fc:a1:39:a0:07:06:7c
			28:c5:5c:0b:8b:2a:87:e5:e1:af:46:d3:09:39:54:c2
			1f:74:db:73:68:84:bc:88:d8:e2:6f:56:1b:6f:2c:63
			6d:6b:f3:b6:e2:b1:63:9c:38:55:a4:81:21:6b:b0:e5
			fe:3e:87:95:41:6c:04:df:53:3e:ef:66:66:b4:41:bc
			df:7d:75:3f:e9:3b:26:12:f1:c8:81:97:eb:5b:0e:cb
			a3
		Exponent (bits 24):
			01:00:01
	Extensions:
		Authority Key Identifier (not critical):
			90af6a3a945a0bd890ea125673df43b43a28dae7
		Subject Key Identifier (not critical):
			f75c2c70a1ff16a368ece55a155bd26fad908efe
		Key Usage (critical):
			Digital signature.
			Key encipherment.
		Basic Constraints (critical):
			Certificate Authority (CA): FALSE
		Key Purpose (not critical):
			TLS WWW Server.
			TLS WWW Client.
		Certificate Policies (not critical):
			1.3.6.1.4.1.6449.1.2.2.7
				URI: https://secure.comodo.com/CPS
			2.23.140.1.2.1
		CRL Distribution points (not critical):
			URI: http://crl.comodoca.com/COMODORSADomainValidationSecureServerCA.crl
		Authority Information Access (not critical):
			Access Method: 1.3.6.1.5.5.7.48.2 (id-ad-caIssuers)
			Access Location URI: http://crt.comodoca.com/COMODORSADomainValidationSecureServerCA.crt
			Access Method: 1.3.6.1.5.5.7.48.1 (id-ad-ocsp)
			Access Location URI: http://ocsp.comodoca.com
		Subject Alternative Name (not critical):
			DNSname: *.cactussstp.com
			DNSname: cactussstp.com
	Signature Algorithm: RSA-SHA256
	Signature:
		01:cd:31:99:bf:9f:de:bf:71:ff:cd:25:fc:4e:44:15
		9e:74:da:98:6f:fe:2c:98:2f:59:6c:e1:50:d7:dd:05
		50:80:d4:1d:11:a4:7a:18:ed:b7:52:2c:a7:40:70:99
		0e:c1:a8:78:b8:08:db:8e:73:4b:6c:af:f5:03:0a:6e
		59:27:0c:76:ff:9e:9d:cd:cc:49:6f:9c:fb:f9:95:97
		62:80:fa:bc:73:9c:88:c3:5e:0c:cb:8a:b3:e3:68:50
		6e:cd:9a:9f:d4:a8:0b:30:d1:50:7e:83:5c:4d:80:b3
		95:9c:c5:1c:11:60:5a:24:3c:9a:91:28:f8:8b:13:97
		74:34:59:a5:cc:05:d9:47:71:56:91:39:68:4a:40:e6
		d0:9b:68:70:77:86:0a:d1:fe:c4:9b:f5:a9:3e:e2:08
		c5:a6:21:72:cc:ce:59:13:4a:4a:4d:36:8c:9c:c4:c5
		f8:af:7c:3c:11:23:97:94:3a:32:40:9f:e1:c5:bc:0d
		7a:75:7b:5d:8f:c2:3f:a7:66:de:24:da:94:ce:d6:88
		e8:c6:ce:09:de:18:69:03:52:3d:55:a0:35:28:19:9e
		54:3f:f0:a1:a2:82:a2:a8:5b:06:a5:41:59:de:0f:a7
		b3:52:68:38:48:03:48:ff:7d:74:b7:1e:68:4b:b7:cf
Other Information:
	SHA1 fingerprint:
		1c9ef5956e706bd8158c8973dc87771f47f6b81f
	SHA256 fingerprint:
		3ba18127e4ed8ef09da99278f3fef4ce152c6f30198f5a39dead7831adff7f7c
	Public Key ID:
		f97fb8cb8340d2147778d5d52f767d5eafc62702
	Public key's random art:
		+--[ RSA 2048]----+
		|        ........+|
		|        .....   o|
		|       o   .    o|
		|      . o.    o *|
		|       oS    . ++|
		|        ..E     o|
		|         ..o o . |
		|          .o+ * .|
		|            =B o |
		+-----------------+


-----BEGIN CERTIFICATE-----
MIIFVzCCBD+gAwIBAgIQRsZU/wxbZT1Xgf+PKnM0EjANBgkqhkiG9w0BAQsFADCB
kDELMAkGA1UEBhMCR0IxGzAZBgNVBAgTEkdyZWF0ZXIgTWFuY2hlc3RlcjEQMA4G
A1UEBxMHU2FsZm9yZDEaMBgGA1UEChMRQ09NT0RPIENBIExpbWl0ZWQxNjA0BgNV
BAMTLUNPTU9ETyBSU0EgRG9tYWluIFZhbGlkYXRpb24gU2VjdXJlIFNlcnZlciBD
QTAeFw0xNjAzMTAwMDAwMDBaFw0xODA0MDkyMzU5NTlaMF0xITAfBgNVBAsTGERv
bWFpbiBDb250cm9sIFZhbGlkYXRlZDEdMBsGA1UECxMUUG9zaXRpdmVTU0wgV2ls
ZGNhcmQxGTAXBgNVBAMMECouY2FjdHVzc3N0cC5jb20wggEiMA0GCSqGSIb3DQEB
AQUAA4IBDwAwggEKAoIBAQDaGQqCSEsmdOce8XFGsBByUk8FfkNhq4jytVGuX3Qk
8uFEFXqvhytfI5dbX/9Kp+Mb3pRVk5gajuyAYVfj296IxDIFM6mfQs2Ihy3hV2pe
qstNzWecrp+VvfyrP8vmfWskTPQfe/PkbSAUypPM+TnzNRTjkzqeTeq6gS5feJJV
T4Q4YJJZYYciUe6j1jjgepI6If+VSitBfXxdEHqeVyLKecaNh3tuvc78oTmgBwZ8
KMVcC4sqh+Xhr0bTCTlUwh9023NohLyI2OJvVhtvLGNta/O24rFjnDhVpIEha7Dl
/j6HlUFsBN9TPu9mZrRBvN99dT/pOyYS8ciBl+tbDsujAgMBAAGjggHdMIIB2TAf
BgNVHSMEGDAWgBSQr2o6lFoL2JDqElZz30O0Oija5zAdBgNVHQ4EFgQU91wscKH/
FqNo7OVaFVvSb62Qjv4wDgYDVR0PAQH/BAQDAgWgMAwGA1UdEwEB/wQCMAAwHQYD
VR0lBBYwFAYIKwYBBQUHAwEGCCsGAQUFBwMCME8GA1UdIARIMEYwOgYLKwYBBAGy
MQECAgcwKzApBggrBgEFBQcCARYdaHR0cHM6Ly9zZWN1cmUuY29tb2RvLmNvbS9D
UFMwCAYGZ4EMAQIBMFQGA1UdHwRNMEswSaBHoEWGQ2h0dHA6Ly9jcmwuY29tb2Rv
Y2EuY29tL0NPTU9ET1JTQURvbWFpblZhbGlkYXRpb25TZWN1cmVTZXJ2ZXJDQS5j
cmwwgYUGCCsGAQUFBwEBBHkwdzBPBggrBgEFBQcwAoZDaHR0cDovL2NydC5jb21v
ZG9jYS5jb20vQ09NT0RPUlNBRG9tYWluVmFsaWRhdGlvblNlY3VyZVNlcnZlckNB
LmNydDAkBggrBgEFBQcwAYYYaHR0cDovL29jc3AuY29tb2RvY2EuY29tMCsGA1Ud
EQQkMCKCECouY2FjdHVzc3N0cC5jb22CDmNhY3R1c3NzdHAuY29tMA0GCSqGSIb3
DQEBCwUAA4IBAQABzTGZv5/ev3H/zSX8TkQVnnTamG/+LJgvWWzhUNfdBVCA1B0R
pHoY7bdSLKdAcJkOwah4uAjbjnNLbK/1AwpuWScMdv+enc3MSW+c+/mVl2KA+rxz
nIjDXgzLirPjaFBuzZqf1KgLMNFQfoNcTYCzlZzFHBFgWiQ8mpEo+IsTl3Q0WaXM
BdlHcVaROWhKQObQm2hwd4YK0f7Em/WpPuIIxaYhcszOWRNKSk02jJzExfivfDwR
I5eUOjJAn+HFvA16dXtdj8I/p2beJNqUztaI6MbOCd4YaQNSPVWgNSgZnlQ/8KGi
gqKoWwalQVneD6ezUmg4SANI/310tx5oS7fP
-----END CERTIFICATE-----

- Certificate[1] info:
 - X.509 Certificate Information:
	Version: 3
	Serial Number (hex): 2b2e6eead975366c148a6edba37c8c07
	Issuer: C=GB,ST=Greater Manchester,L=Salford,O=COMODO CA Limited,CN=COMODO RSA Certification Authority
	Validity:
		Not Before: Wed Feb 12 00:00:00 UTC 2014
		Not After: Sun Feb 11 23:59:59 UTC 2029
	Subject: C=GB,ST=Greater Manchester,L=Salford,O=COMODO CA Limited,CN=COMODO RSA Domain Validation Secure Server CA
	Subject Public Key Algorithm: RSA
	Algorithm Security Level: Medium (2048 bits)
		Modulus (bits 2048):
			00:8e:c2:02:19:e1:a0:59:a4:eb:38:35:8d:2c:fd:01
			d0:d3:49:c0:64:c7:0b:62:05:45:16:3a:a8:a0:c0:0c
			02:7f:1d:cc:db:c4:a1:6d:77:03:a3:0f:86:f9:e3:06
			9c:3e:0b:81:8a:9b:49:1b:ad:03:be:fa:4b:db:8c:20
			ed:d5:ce:5e:65:8e:3e:0d:af:4c:c2:b0:b7:45:5e:52
			2f:34:de:48:24:64:b4:41:ae:00:97:f7:be:67:de:9e
			d0:7a:a7:53:80:3b:7c:ad:f5:96:55:6f:97:47:0a:7c
			85:8b:22:97:8d:b3:84:e0:96:57:d0:70:18:60:96:8f
			ee:2d:07:93:9d:a1:ba:ca:d1:cd:7b:e9:c4:2a:9a:28
			21:91:4d:6f:92:4f:25:a5:f2:7a:35:dd:26:dc:46:a5
			d0:ac:59:35:8c:ff:4e:91:43:50:3f:59:93:1e:6c:51
			21:ee:58:14:ab:fe:75:50:78:3e:4c:b0:1c:86:13:fa
			6b:98:bc:e0:3b:94:1e:85:52:dc:03:93:24:18:6e:cb
			27:51:45:e6:70:de:25:43:a4:0d:e1:4a:a5:ed:b6:7e
			c8:cd:6d:ee:2e:1d:27:73:5d:dc:45:30:80:aa:e3:b2
			41:0b:af:bd:44:87:da:b9:e5:1b:9d:7f:ae:e5:85:82
			a5
		Exponent (bits 24):
			01:00:01
	Extensions:
		Authority Key Identifier (not critical):
			bbaf7e023dfaa6f13c848eadee3898ecd93232d4
		Subject Key Identifier (not critical):
			90af6a3a945a0bd890ea125673df43b43a28dae7
		Key Usage (critical):
			Digital signature.
			Certificate signing.
			CRL signing.
		Basic Constraints (critical):
			Certificate Authority (CA): TRUE
			Path Length Constraint: 0
		Key Purpose (not critical):
			TLS WWW Server.
			TLS WWW Client.
		Certificate Policies (not critical):
			2.5.29.32.0
			2.23.140.1.2.1
		CRL Distribution points (not critical):
			URI: http://crl.comodoca.com/COMODORSACertificationAuthority.crl
		Authority Information Access (not critical):
			Access Method: 1.3.6.1.5.5.7.48.2 (id-ad-caIssuers)
			Access Location URI: http://crt.comodoca.com/COMODORSAAddTrustCA.crt
			Access Method: 1.3.6.1.5.5.7.48.1 (id-ad-ocsp)
			Access Location URI: http://ocsp.comodoca.com
	Signature Algorithm: RSA-SHA384
	Signature:
		4e:2b:76:4f:92:1c:62:36:89:ba:77:c1:27:05:f4:1c
		d6:44:9d:a9:9a:3e:aa:d5:66:66:01:3e:ea:49:e6:a2
		35:bc:fa:f6:dd:95:8e:99:35:98:0e:36:18:75:b1:dd
		dd:50:72:7c:ae:dc:77:88:ce:0f:f7:90:20:ca:a3:67
		2e:1f:56:7f:7b:e1:44:ea:42:95:c4:5d:0d:01:50:46
		15:f2:81:89:59:6c:8a:dd:8c:f1:12:a1:8d:3a:42:8a
		98:f8:4b:34:7b:27:3b:08:b4:6f:24:3b:72:9d:63:74
		58:3c:1a:6c:3f:4f:c7:11:9a:c8:a8:f5:b5:37:ef:10
		45:c6:6c:d9:e0:5e:95:26:b3:eb:ad:a3:b9:ee:7f:0c
		9a:66:35:73:32:60:4e:e5:dd:8a:61:2c:6e:52:11:77
		68:96:d3:18:75:51:15:00:1b:74:88:dd:e1:c7:38:04
		43:28:e9:16:fd:d9:05:d4:5d:47:27:60:d6:fb:38:3b
		6c:72:a2:94:f8:42:1a:df:ed:6f:06:8c:45:c2:06:00
		aa:e4:e8:dc:d9:b5:e1:73:78:ec:f6:23:dc:d1:dd:6c
		8e:1a:8f:a5:ea:54:7c:96:b7:c3:fe:55:8e:8d:49:5e
		fc:64:bb:cf:3e:bd:96:eb:69:cd:bf:e0:48:f1:62:82
		10:e5:0c:46:57:f2:33:da:d0:c8:63:ed:c6:1f:94:05
		96:4a:1a:91:d1:f7:eb:cf:8f:52:ae:0d:08:d9:3e:a8
		a0:51:e9:c1:87:74:d5:c9:f7:74:ab:2e:53:fb:bb:7a
		fb:97:e2:f8:1f:26:8f:b3:d2:a0:e0:37:5b:28:3b:31
		e5:0e:57:2d:5a:b8:ad:79:ac:5e:20:66:1a:a5:b9:a6
		b5:39:c1:f5:98:43:ff:ee:f9:a7:a7:fd:ee:ca:24:3d
		80:16:c4:17:8f:8a:c1:60:a1:0c:ae:5b:43:47:91:4b
		d5:9a:17:5f:f9:d4:87:c1:c2:8c:b7:e7:e2:0f:30:19
		37:86:ac:e0:dc:42:03:e6:94:a8:9d:ae:fd:0f:24:51
		94:ce:92:08:d1:fc:50:f0:03:40:7b:88:59:ed:0e:dd
		ac:d2:77:82:34:dc:06:95:02:d8:90:f9:2d:ea:37:d5
		1a:60:d0:67:20:d7:d8:42:0b:45:af:82:68:de:dd:66
		24:37:90:29:94:19:46:19:25:b8:80:d7:cb:d4:86:28
		6a:44:70:26:23:62:a9:9f:86:6f:bf:ba:90:70:d2:56
		77:85:78:ef:ea:25:a9:17:ce:50:72:8c:00:3a:aa:e3
		db:63:34:9f:f8:06:71:01:e2:82:20:d4:fe:6f:bd:b1
Other Information:
	SHA1 fingerprint:
		339cdd57cfd5b141169b615ff31428782d1da639
	SHA256 fingerprint:
		02ab57e4e67a0cb48dd2ff34830e8ac40f4476fb08ca6be3f5cd846f646840f0
	Public Key ID:
		497c6868e484ccf0ba0601a6c40b7f10072c6a3c
	Public key's random art:
		+--[ RSA 2048]----+
		|o++*..o          |
		|B.oo++ o .       |
		|*o... + = .      |
		|.E.... o o       |
		|o o.    S        |
		| . .             |
		|  o              |
		| .               |
		|                 |
		+-----------------+


-----BEGIN CERTIFICATE-----
MIIGCDCCA/CgAwIBAgIQKy5u6tl1NmwUim7bo3yMBzANBgkqhkiG9w0BAQwFADCB
hTELMAkGA1UEBhMCR0IxGzAZBgNVBAgTEkdyZWF0ZXIgTWFuY2hlc3RlcjEQMA4G
A1UEBxMHU2FsZm9yZDEaMBgGA1UEChMRQ09NT0RPIENBIExpbWl0ZWQxKzApBgNV
BAMTIkNPTU9ETyBSU0EgQ2VydGlmaWNhdGlvbiBBdXRob3JpdHkwHhcNMTQwMjEy
MDAwMDAwWhcNMjkwMjExMjM1OTU5WjCBkDELMAkGA1UEBhMCR0IxGzAZBgNVBAgT
EkdyZWF0ZXIgTWFuY2hlc3RlcjEQMA4GA1UEBxMHU2FsZm9yZDEaMBgGA1UEChMR
Q09NT0RPIENBIExpbWl0ZWQxNjA0BgNVBAMTLUNPTU9ETyBSU0EgRG9tYWluIFZh
bGlkYXRpb24gU2VjdXJlIFNlcnZlciBDQTCCASIwDQYJKoZIhvcNAQEBBQADggEP
ADCCAQoCggEBAI7CAhnhoFmk6zg1jSz9AdDTScBkxwtiBUUWOqigwAwCfx3M28Sh
bXcDow+G+eMGnD4LgYqbSRutA776S9uMIO3Vzl5ljj4Nr0zCsLdFXlIvNN5IJGS0
Qa4Al/e+Z96e0HqnU4A7fK31llVvl0cKfIWLIpeNs4TgllfQcBhglo/uLQeTnaG6
ytHNe+nEKpooIZFNb5JPJaXyejXdJtxGpdCsWTWM/06RQ1A/WZMebFEh7lgUq/51
UHg+TLAchhP6a5i84DuUHoVS3AOTJBhuyydRReZw3iVDpA3hSqXttn7IzW3uLh0n
c13cRTCAquOyQQuvvUSH2rnlG51/ruWFgqUCAwEAAaOCAWUwggFhMB8GA1UdIwQY
MBaAFLuvfgI9+qbxPISOre44mOzZMjLUMB0GA1UdDgQWBBSQr2o6lFoL2JDqElZz
30O0Oija5zAOBgNVHQ8BAf8EBAMCAYYwEgYDVR0TAQH/BAgwBgEB/wIBADAdBgNV
HSUEFjAUBggrBgEFBQcDAQYIKwYBBQUHAwIwGwYDVR0gBBQwEjAGBgRVHSAAMAgG
BmeBDAECATBMBgNVHR8ERTBDMEGgP6A9hjtodHRwOi8vY3JsLmNvbW9kb2NhLmNv
bS9DT01PRE9SU0FDZXJ0aWZpY2F0aW9uQXV0aG9yaXR5LmNybDBxBggrBgEFBQcB
AQRlMGMwOwYIKwYBBQUHMAKGL2h0dHA6Ly9jcnQuY29tb2RvY2EuY29tL0NPTU9E
T1JTQUFkZFRydXN0Q0EuY3J0MCQGCCsGAQUFBzABhhhodHRwOi8vb2NzcC5jb21v
ZG9jYS5jb20wDQYJKoZIhvcNAQEMBQADggIBAE4rdk+SHGI2ibp3wScF9BzWRJ2p
mj6q1WZmAT7qSeaiNbz69t2Vjpk1mA42GHWx3d1Qcnyu3HeIzg/3kCDKo2cuH1Z/
e+FE6kKVxF0NAVBGFfKBiVlsit2M8RKhjTpCipj4SzR7JzsItG8kO3KdY3RYPBps
P0/HEZrIqPW1N+8QRcZs2eBelSaz662jue5/DJpmNXMyYE7l3YphLG5SEXdoltMY
dVEVABt0iN3hxzgEQyjpFv3ZBdRdRydg1vs4O2xyopT4Qhrf7W8GjEXCBgCq5Ojc
2bXhc3js9iPc0d1sjhqPpepUfJa3w/5Vjo1JXvxku88+vZbrac2/4EjxYoIQ5QxG
V/Iz2tDIY+3GH5QFlkoakdH368+PUq4NCNk+qKBR6cGHdNXJ93SrLlP7u3r7l+L4
HyaPs9Kg4DdbKDsx5Q5XLVq4rXmsXiBmGqW5prU5wfWYQ//u+aen/e7KJD2AFsQX
j4rBYKEMrltDR5FL1ZoXX/nUh8HCjLfn4g8wGTeGrODcQgPmlKidrv0PJFGUzpII
0fxQ8ANAe4hZ7Q7drNJ3gjTcBpUC2JD5Leo31Rpg0Gcg19hCC0Wvgmje3WYkN5Ap
lBlGGSW4gNfL1IYoakRwJiNiqZ+Gb7+6kHDSVneFeO/qJakXzlByjAA6quPbYzSf
+AZxAeKCINT+b72x
-----END CERTIFICATE-----

- Certificate[2] info:
 - X.509 Certificate Information:
	Version: 3
	Serial Number (hex): 01
	Issuer: C=SE,O=AddTrust AB,OU=AddTrust External TTP Network,CN=AddTrust External CA Root
	Validity:
		Not Before: Tue May 30 10:48:38 UTC 2000
		Not After: Sat May 30 10:48:38 UTC 2020
	Subject: C=SE,O=AddTrust AB,OU=AddTrust External TTP Network,CN=AddTrust External CA Root
	Subject Public Key Algorithm: RSA
	Algorithm Security Level: Medium (2048 bits)
		Modulus (bits 2048):
			00:b7:f7:1a:33:e6:f2:00:04:2d:39:e0:4e:5b:ed:1f
			bc:6c:0f:cd:b5:fa:23:b6:ce:de:9b:11:33:97:a4:29
			4c:7d:93:9f:bd:4a:bc:93:ed:03:1a:e3:8f:cf:e5:6d
			50:5a:d6:97:29:94:5a:80:b0:49:7a:db:2e:95:fd:b8
			ca:bf:37:38:2d:1e:3e:91:41:ad:70:56:c7:f0:4f:3f
			e8:32:9e:74:ca:c8:90:54:e9:c6:5f:0f:78:9d:9a:40
			3c:0e:ac:61:aa:5e:14:8f:9e:87:a1:6a:50:dc:d7:9a
			4e:af:05:b3:a6:71:94:9c:71:b3:50:60:0a:c7:13:9d
			38:07:86:02:a8:e9:a8:69:26:18:90:ab:4c:b0:4f:23
			ab:3a:4f:84:d8:df:ce:9f:e1:69:6f:bb:d7:42:d7:6b
			44:e4:c7:ad:ee:6d:41:5f:72:5a:71:08:37:b3:79:65
			a4:59:a0:94:37:f7:00:2f:0d:c2:92:72:da:d0:38:72
			db:14:a8:45:c4:5d:2a:7d:b7:b4:d6:c4:ee:ac:cd:13
			44:b7:c9:2b:dd:43:00:25:fa:61:b9:69:6a:58:23:11
			b7:a7:33:8f:56:75:59:f5:cd:29:d7:46:b7:0a:2b:65
			b6:d3:42:6f:15:b2:b8:7b:fb:ef:e9:5d:53:d5:34:5a
			27
		Exponent (bits 24):
			01:00:01
	Extensions:
		Subject Key Identifier (not critical):
			adbd987a34b426f7fac42654ef03bde024cb541a
		Key Usage (not critical):
			Certificate signing.
			CRL signing.
		Basic Constraints (critical):
			Certificate Authority (CA): TRUE
		Authority Key Identifier (not critical):
			adbd987a34b426f7fac42654ef03bde024cb541a
	Signature Algorithm: RSA-SHA1
	Signature:
		b0:9b:e0:85:25:c2:d6:23:e2:0f:96:06:92:9d:41:98
		9c:d9:84:79:81:d9:1e:5b:14:07:23:36:65:8f:b0:d8
		77:bb:ac:41:6c:47:60:83:51:b0:f9:32:3d:e7:fc:f6
		26:13:c7:80:16:a5:bf:5a:fc:87:cf:78:79:89:21:9a
		e2:4c:07:0a:86:35:bc:f2:de:51:c4:d2:96:b7:dc:7e
		4e:ee:70:fd:1c:39:eb:0c:02:51:14:2d:8e:bd:16:e0
		c1:df:46:75:e7:24:ad:ec:f4:42:b4:85:93:70:10:67
		ba:9d:06:35:4a:18:d3:2b:7a:cc:51:42:a1:7a:63:d1
		e6:bb:a1:c5:2b:c2:36:be:13:0d:e6:bd:63:7e:79:7b
		a7:09:0d:40:ab:6a:dd:8f:8a:c3:f6:f6:8c:1a:42:05
		51:d4:45:f5:9f:a7:62:21:68:15:20:43:3c:99:e7:7c
		bd:24:d8:a9:91:17:73:88:3f:56:1b:31:38:18:b4:71
		0f:9a:cd:c8:0e:9e:8e:2e:1b:e1:8c:98:83:cb:1f:31
		f1:44:4c:c6:04:73:49:76:60:0f:c7:f8:bd:17:80:6b
		2e:e9:cc:4c:0e:5a:9a:79:0f:20:0a:2e:d5:9e:63:26
		1e:55:92:94:d8:82:17:5a:7b:d0:bc:c7:8f:4e:86:04
Other Information:
	SHA1 fingerprint:
		02faf3e291435468607857694df5e45b68851868
	SHA256 fingerprint:
		687fa451382278fff0c8b11f8d43d576671c6eb2bceab413fb83d965d06d2ff2
	Public Key ID:
		4f9c7d21799cad0ed8b90c579f1a0299e790f387
	Public key's random art:
		+--[ RSA 2048]----+
		|                 |
		|          +  o o |
		|         B .o * .|
		|         .B=.= +.|
		|        S *E*oo..|
		|         o +o=o  |
		|          . o..  |
		|                 |
		|                 |
		+-----------------+


-----BEGIN CERTIFICATE-----
MIIENjCCAx6gAwIBAgIBATANBgkqhkiG9w0BAQUFADBvMQswCQYDVQQGEwJTRTEU
MBIGA1UEChMLQWRkVHJ1c3QgQUIxJjAkBgNVBAsTHUFkZFRydXN0IEV4dGVybmFs
IFRUUCBOZXR3b3JrMSIwIAYDVQQDExlBZGRUcnVzdCBFeHRlcm5hbCBDQSBSb290
MB4XDTAwMDUzMDEwNDgzOFoXDTIwMDUzMDEwNDgzOFowbzELMAkGA1UEBhMCU0Ux
FDASBgNVBAoTC0FkZFRydXN0IEFCMSYwJAYDVQQLEx1BZGRUcnVzdCBFeHRlcm5h
bCBUVFAgTmV0d29yazEiMCAGA1UEAxMZQWRkVHJ1c3QgRXh0ZXJuYWwgQ0EgUm9v
dDCCASIwDQYJKoZIhvcNAQEBBQADggEPADCCAQoCggEBALf3GjPm8gAELTngTlvt
H7xsD821+iO2zt6bETOXpClMfZOfvUq8k+0DGuOPz+VtUFrWlymUWoCwSXrbLpX9
uMq/NzgtHj6RQa1wVsfwTz/oMp50ysiQVOnGXw94nZpAPA6sYapeFI+eh6FqUNzX
mk6vBbOmcZSccbNQYArHE504B4YCqOmoaSYYkKtMsE8jqzpPhNjfzp/haW+710LX
a0Tkx63ubUFfclpxCDezeWWkWaCUN/cALw3CknLa0Dhy2xSoRcRdKn23tNbE7qzN
E0S3ySvdQwAl+mG5aWpYIxG3pzOPVnVZ9c0p10a3CitlttNCbxWyuHv77+ldU9U0
WicCAwEAAaOB3DCB2TAdBgNVHQ4EFgQUrb2YejS0Jvf6xCZU7wO94CTLVBowCwYD
VR0PBAQDAgEGMA8GA1UdEwEB/wQFMAMBAf8wgZkGA1UdIwSBkTCBjoAUrb2YejS0
Jvf6xCZU7wO94CTLVBqhc6RxMG8xCzAJBgNVBAYTAlNFMRQwEgYDVQQKEwtBZGRU
cnVzdCBBQjEmMCQGA1UECxMdQWRkVHJ1c3QgRXh0ZXJuYWwgVFRQIE5ldHdvcmsx
IjAgBgNVBAMTGUFkZFRydXN0IEV4dGVybmFsIENBIFJvb3SCAQEwDQYJKoZIhvcN
AQEFBQADggEBALCb4IUlwtYj4g+WBpKdQZic2YR5gdkeWxQHIzZlj7DYd7usQWxH
YINRsPkyPef89iYTx4AWpb9a/IfPeHmJIZriTAcKhjW88t5RxNKWt9x+Tu5w/Rw5
6wwCURQtjr0W4MHfRnXnJK3s9EK0hZNwEGe6nQY1ShjTK3rMUUKhemPR5ruhxSvC
Nr4TDea9Y355e6cJDUCrat2PisP29owaQgVR1EX1n6diIWgVIEM8med8vSTYqZEX
c4g/VhsxOBi0cQ+azcgOno4uG+GMmIPLHzHxREzGBHNJdmAPx/i9F4BrLunMTA5a
mnkPIAou1Z5jJh5VkpTYghdae9C8x49OhgQ=
-----END CERTIFICATE-----
